Certificate:
    Data:
        Version: 3 (0x2)
        Serial Number: 40 (0x28)
    Signature Algorithm: sha256WithRSAEncryption
        Issuer: C=ZA, ST=Gauteng, L=Johannesburg, O=Fusion Dealer Systems, OU=Fusion CA, CN=Fusion CA
        Validity
            Not Before: Oct  7 11:21:08 2024 GMT
            Not After : Oct  7 11:21:08 2029 GMT
        Subject: C=ZA, ST=Gauteng, L=Johannesburg, O=Fusion Dealer Systems, OU=Fusion CA, CN=Fusion CA
        Subject Public Key Info:
            Public Key Algorithm: rsaEncryption
                Public-Key: (2048 bit)
                Modulus:
                    00:ad:4b:28:d0:75:2d:ad:4a:32:7a:0d:d8:94:97:
                    b7:bf:b4:d9:c4:72:15:54:72:82:07:63:4c:6b:0d:
                    41:87:57:6f:2c:d7:99:57:e5:37:98:d0:e5:22:3c:
                    50:17:21:3e:49:61:dc:58:d0:ae:df:47:6b:de:e4:
                    50:21:f2:0f:35:9f:fa:28:e0:c5:90:17:4e:7b:94:
                    cb:0e:02:1b:93:ab:bc:19:cc:00:d2:4e:ba:6b:90:
                    18:73:58:33:ca:1c:e6:bb:3e:1e:9c:d8:3f:06:dd:
                    8c:d9:98:da:86:90:04:d7:60:3f:96:14:42:50:59:
                    bb:74:14:c8:5b:69:e7:ad:a4:03:79:ec:9a:df:56:
                    5a:11:8f:6d:56:b9:3b:a2:df:63:fd:d4:95:02:ea:
                    3f:8b:67:00:17:e5:56:4c:9e:df:ce:b2:85:2e:a3:
                    22:57:5d:9d:03:6c:49:11:36:76:ad:aa:f2:e1:51:
                    b1:6d:2a:78:f9:d5:14:72:30:51:db:9e:06:c8:33:
                    c0:10:1d:8b:b5:21:0a:d0:43:9f:8e:4c:6d:31:4c:
                    3b:88:a9:7c:d1:79:26:f1:24:bd:81:d7:eb:57:e5:
                    8e:58:1f:b2:43:1d:a9:f0:61:a0:e2:b8:fb:05:b2:
                    36:95:63:7b:02:f9:a8:57:20:aa:f2:3e:5b:d2:2b:
                    1c:c1
                Exponent: 65537 (0x10001)
        X509v3 extensions:
            X509v3 Basic Constraints: 
                CA:TRUE
            X509v3 Subject Key Identifier: 
                9A:47:02:FB:4B:01:C8:94:1B:51:0B:E9:82:3F:1A:6D:96:1D:80:4F
            X509v3 Authority Key Identifier: 
                keyid:9A:47:02:FB:4B:01:C8:94:1B:51:0B:E9:82:3F:1A:6D:96:1D:80:4F
                DirName:/C=ZA/ST=Gauteng/L=Johannesburg/O=Fusion Dealer Systems/OU=Fusion CA/CN=Fusion CA
                serial:28

    Signature Algorithm: sha256WithRSAEncryption
         66:00:42:30:2a:06:83:9b:bd:d2:95:26:88:ca:c6:e5:fc:3e:
         bd:1b:bb:7f:90:1d:e1:45:04:0f:be:bf:fa:75:c4:47:cb:e8:
         58:b7:9c:a4:60:d2:90:0f:4c:ca:fc:f0:0b:eb:bc:c7:ff:66:
         e4:d8:f9:30:fb:78:2c:26:5c:92:8d:17:04:84:a2:00:d1:75:
         1e:ad:86:5f:fc:89:1a:4d:3d:2f:1b:1f:70:db:f3:59:7a:95:
         fb:a1:92:46:a4:e2:14:09:63:51:61:32:28:ad:f9:45:d7:b8:
         e1:1c:f5:be:ce:9d:b5:e0:8d:26:74:9a:8f:59:6a:be:1c:6e:
         8d:6c:9b:21:97:8e:2f:a1:b6:fc:8d:c8:c6:27:9a:2d:c5:07:
         52:2a:18:a2:b2:01:25:29:e6:8b:7f:a6:ff:d4:b1:c0:83:38:
         76:2d:ec:4f:d5:b7:dd:ec:bd:01:c9:4d:0b:da:cc:c3:56:4e:
         b4:10:a8:c6:c1:97:45:90:c7:10:33:38:9c:89:b2:89:ce:cb:
         11:16:6b:cd:77:35:fe:76:25:64:13:42:59:e4:0f:3b:22:f3:
         6d:56:0b:98:5b:06:00:e6:d2:24:6f:a8:f9:1f:41:4a:7e:46:
         2e:44:01:15:a5:f8:58:14:16:2f:70:90:1b:f0:79:49:98:d7:
         af:ca:c7:ae
-----BEGIN CERTIFICATE-----
MIIEVTCCAz2gAwIBAgIBKDANBgkqhkiG9w0BAQsFADB+MQswCQYDVQQGEwJaQTEQ
MA4GA1UECAwHR2F1dGVuZzEVMBMGA1UEBwwMSm9oYW5uZXNidXJnMR4wHAYDVQQK
DBVGdXNpb24gRGVhbGVyIFN5c3RlbXMxEjAQBgNVBAsMCUZ1c2lvbiBDQTESMBAG
A1UEAwwJRnVzaW9uIENBMB4XDTI0MTAwNzExMjEwOFoXDTI5MTAwNzExMjEwOFow
fjELMAkGA1UEBhMCWkExEDAOBgNVBAgMB0dhdXRlbmcxFTATBgNVBAcMDEpvaGFu
bmVzYnVyZzEeMBwGA1UECgwVRnVzaW9uIERlYWxlciBTeXN0ZW1zMRIwEAYDVQQL
DAlGdXNpb24gQ0ExEjAQBgNVBAMMCUZ1c2lvbiBDQTCCASIwDQYJKoZIhvcNAQEB
BQADggEPADCCAQoCggEBAK1LKNB1La1KMnoN2JSXt7+02cRyFVRyggdjTGsNQYdX
byzXmVflN5jQ5SI8UBchPklh3FjQrt9Ha97kUCHyDzWf+ijgxZAXTnuUyw4CG5Or
vBnMANJOumuQGHNYM8oc5rs+HpzYPwbdjNmY2oaQBNdgP5YUQlBZu3QUyFtp562k
A3nsmt9WWhGPbVa5O6LfY/3UlQLqP4tnABflVkye386yhS6jIlddnQNsSRE2dq2q
8uFRsW0qePnVFHIwUdueBsgzwBAdi7UhCtBDn45MbTFMO4ipfNF5JvEkvYHX61fl
jlgfskMdqfBhoOK4+wWyNpVjewL5qFcgqvI+W9IrHMECAwEAAaOB3TCB2jAMBgNV
HRMEBTADAQH/MB0GA1UdDgQWBBSaRwL7SwHIlBtRC+mCPxptlh2ATzCBqgYDVR0j
BIGiMIGfgBSaRwL7SwHIlBtRC+mCPxptlh2AT6GBg6SBgDB+MQswCQYDVQQGEwJa
QTEQMA4GA1UECAwHR2F1dGVuZzEVMBMGA1UEBwwMSm9oYW5uZXNidXJnMR4wHAYD
VQQKDBVGdXNpb24gRGVhbGVyIFN5c3RlbXMxEjAQBgNVBAsMCUZ1c2lvbiBDQTES
MBAGA1UEAwwJRnVzaW9uIENBggEoMA0GCSqGSIb3DQEBCwUAA4IBAQBmAEIwKgaD
m73SlSaIysbl/D69G7t/kB3hRQQPvr/6dcRHy+hYt5ykYNKQD0zK/PAL67zH/2bk
2Pkw+3gsJlySjRcEhKIA0XUerYZf/IkaTT0vGx9w2/NZepX7oZJGpOIUCWNRYTIo
rflF17jhHPW+zp214I0mdJqPWWq+HG6NbJshl44vobb8jcjGJ5otxQdSKhiisgEl
KeaLf6b/1LHAgzh2LexP1bfd7L0ByU0L2szDVk60EKjGwZdFkMcQMzicibKJzssR
FmvNdzX+diVkE0JZ5A87IvNtVguYWwYA5tIkb6j5H0FKfkYuRAEVpfhYFBYvcJAb
8HlJmNevyseu
-----END CERTIFICATE-----
