Certificate:
    Data:
        Version: 3 (0x2)
        Serial Number: 29 (0x1d)
    Signature Algorithm: sha256WithRSAEncryption
        Issuer: C=ZA, ST=Gauteng, L=Johannesburg, O=Fusion Dealer Systems, CN=Fusion CA
        Validity
            Not Before: Oct  7 12:40:11 2019 GMT
            Not After : Oct  6 12:40:11 2024 GMT
        Subject: C=ZA, ST=Gauteng, L=Johannesburg, O=Fusion Dealer Systems, CN=Fusion CA
        Subject Public Key Info:
            Public Key Algorithm: rsaEncryption
                Public-Key: (2048 bit)
                Modulus:
                    00:b3:6b:4e:33:94:b3:38:be:d5:ba:af:ca:8d:4d:
                    f9:9d:73:3c:65:07:c4:40:52:10:17:66:a4:d7:78:
                    3f:27:87:4b:eb:71:fb:28:15:7b:be:a4:4e:d3:66:
                    ac:4e:be:94:c6:01:05:d8:68:7e:c5:2f:d1:81:5b:
                    5a:79:42:cf:ba:cd:da:db:f4:c3:01:f2:54:33:b9:
                    f8:95:02:90:32:0c:17:76:1a:77:97:53:fc:04:78:
                    ef:42:2d:05:21:8e:47:2a:0f:7c:50:57:26:e5:e3:
                    9d:db:1d:4d:78:cd:64:fc:41:26:39:45:fc:74:34:
                    15:ec:4c:46:65:2e:a4:fa:95:22:12:37:7d:14:46:
                    79:d6:10:70:62:1e:fe:c1:49:1a:6a:f1:4e:f1:79:
                    2d:7c:8d:28:62:22:04:4c:8a:d5:ef:96:e7:80:24:
                    e9:17:8c:5f:69:0c:53:89:3d:49:eb:d0:fc:99:0d:
                    6a:19:cd:a2:1a:1a:45:fe:41:ec:fe:ec:e7:fb:c2:
                    8c:8d:40:d3:6f:c3:8f:e2:1a:0a:32:83:60:9f:e7:
                    93:26:1f:77:c6:e2:56:4c:5e:94:ec:88:c7:b9:b5:
                    97:ef:cc:77:e6:61:45:4a:22:1f:c8:1e:7b:81:f7:
                    d8:b0:29:ac:c3:b3:15:b7:32:de:6e:0f:9c:db:d6:
                    d3:7b
                Exponent: 65537 (0x10001)
        X509v3 extensions:
            X509v3 Basic Constraints: 
                CA:TRUE
            X509v3 Subject Key Identifier: 
                8C:A8:E1:32:01:2E:22:99:33:06:F5:15:94:41:A8:78:B6:12:88:8B
            X509v3 Authority Key Identifier: 
                keyid:8C:A8:E1:32:01:2E:22:99:33:06:F5:15:94:41:A8:78:B6:12:88:8B
                DirName:/C=ZA/ST=Gauteng/L=Johannesburg/O=Fusion Dealer Systems/CN=Fusion CA
                serial:1D

    Signature Algorithm: sha256WithRSAEncryption
         37:fd:2f:2f:af:8e:93:35:63:38:44:fa:b8:07:d9:4f:18:3d:
         3e:c4:5a:d1:a8:4b:d7:39:e2:eb:ac:35:6a:46:ff:df:fc:0f:
         8a:3b:e4:53:24:f6:6b:9e:cb:3d:a5:65:5c:1a:1d:b4:0e:4e:
         d9:e6:db:16:18:af:8b:68:ce:e5:5a:51:b2:1d:46:63:45:90:
         d0:b6:f3:d9:9d:ee:b6:47:67:5c:42:73:91:4a:ff:be:35:04:
         9f:2d:2f:4c:4a:10:57:e0:2c:a8:e5:6f:50:a7:96:fb:6a:1e:
         f3:7c:53:26:f0:8f:5c:ad:66:26:99:4b:f8:62:ab:c9:62:47:
         9c:41:8d:db:13:9c:f8:4d:c6:31:db:ec:c9:43:dc:d7:fb:41:
         42:6b:2d:42:50:ee:ed:55:3b:9f:75:60:88:35:f8:63:af:a6:
         e4:b8:84:40:00:78:e1:01:60:c8:41:f8:4f:46:fb:14:0d:33:
         96:59:20:00:0b:6c:f9:ae:28:3a:89:bb:b6:8e:cd:49:fa:89:
         b7:22:8d:0e:e8:b7:0f:ff:02:53:5c:c1:86:91:ca:e3:0c:00:
         47:8d:75:8c:14:1f:56:b1:b0:9e:bf:4c:9f:1c:27:b8:8b:df:
         21:3a:62:61:5d:dc:de:2e:05:52:de:a5:f0:25:bb:65:43:6e:
         64:d5:59:b6
-----BEGIN CERTIFICATE-----
MIIEFzCCAv+gAwIBAgIBHTANBgkqhkiG9w0BAQsFADBqMQswCQYDVQQGEwJaQTEQ
MA4GA1UECAwHR2F1dGVuZzEVMBMGA1UEBwwMSm9oYW5uZXNidXJnMR4wHAYDVQQK
DBVGdXNpb24gRGVhbGVyIFN5c3RlbXMxEjAQBgNVBAMMCUZ1c2lvbiBDQTAeFw0x
OTEwMDcxMjQwMTFaFw0yNDEwMDYxMjQwMTFaMGoxCzAJBgNVBAYTAlpBMRAwDgYD
VQQIDAdHYXV0ZW5nMRUwEwYDVQQHDAxKb2hhbm5lc2J1cmcxHjAcBgNVBAoMFUZ1
c2lvbiBEZWFsZXIgU3lzdGVtczESMBAGA1UEAwwJRnVzaW9uIENBMIIBIjANBgkq
hkiG9w0BAQEFAAOCAQ8AMIIBCgKCAQEAs2tOM5SzOL7Vuq/KjU35nXM8ZQfEQFIQ
F2ak13g/J4dL63H7KBV7vqRO02asTr6UxgEF2Gh+xS/RgVtaeULPus3a2/TDAfJU
M7n4lQKQMgwXdhp3l1P8BHjvQi0FIY5HKg98UFcm5eOd2x1NeM1k/EEmOUX8dDQV
7ExGZS6k+pUiEjd9FEZ51hBwYh7+wUkaavFO8XktfI0oYiIETIrV75bngCTpF4xf
aQxTiT1J69D8mQ1qGc2iGhpF/kHs/uzn+8KMjUDTb8OP4hoKMoNgn+eTJh93xuJW
TF6U7IjHubWX78x35mFFSiIfyB57gffYsCmsw7MVtzLebg+c29bTewIDAQABo4HH
MIHEMAwGA1UdEwQFMAMBAf8wHQYDVR0OBBYEFIyo4TIBLiKZMwb1FZRBqHi2EoiL
MIGUBgNVHSMEgYwwgYmAFIyo4TIBLiKZMwb1FZRBqHi2EoiLoW6kbDBqMQswCQYD
VQQGEwJaQTEQMA4GA1UECAwHR2F1dGVuZzEVMBMGA1UEBwwMSm9oYW5uZXNidXJn
MR4wHAYDVQQKDBVGdXNpb24gRGVhbGVyIFN5c3RlbXMxEjAQBgNVBAMMCUZ1c2lv
biBDQYIBHTANBgkqhkiG9w0BAQsFAAOCAQEAN/0vL6+OkzVjOET6uAfZTxg9PsRa
0ahL1zni66w1akb/3/wPijvkUyT2a57LPaVlXBodtA5O2ebbFhivi2jO5VpRsh1G
Y0WQ0Lbz2Z3utkdnXEJzkUr/vjUEny0vTEoQV+AsqOVvUKeW+2oe83xTJvCPXK1m
JplL+GKryWJHnEGN2xOc+E3GMdvsyUPc1/tBQmstQlDu7VU7n3VgiDX4Y6+m5LiE
QAB44QFgyEH4T0b7FA0zllkgAAts+a4oOom7to7NSfqJtyKNDui3D/8CU1zBhpHK
4wwAR411jBQfVrGwnr9MnxwnuIvfITpiYV3c3i4FUt6l8CW7ZUNuZNVZtg==
-----END CERTIFICATE-----
